target datalayout = "e-m:e-p270:32:32-p271:32:32-p272:64:64-i64:64-i128:128-f80:128-n8:16:32:64-S128"
target triple = "x86_64-pc-linux-gnu"

%struct.hb_ot_language_map_t = type { i16, [6 x i8] }

; Function Attrs: inlinehint mustprogress nounwind uwtable
define internal noundef zeroext i1 @_ZL15hb_bsearch_implIK20hb_ot_language_map_tjJEEbPjRKT0_PT_mmPFiPKvS9_DpT1_ESB_(ptr noundef %0, ptr noundef nonnull align 4 dereferenceable(4) %1, ptr noundef %2, i64 noundef %3, i64 noundef %4, ptr noundef %5) #1 {
  %7 = alloca i1, align 1
  %8 = alloca ptr, align 8
  %9 = alloca ptr, align 8
  %10 = alloca ptr, align 8
  %11 = alloca i64, align 8
  %12 = alloca i64, align 8
  %13 = alloca ptr, align 8
  %14 = alloca i32, align 4
  %15 = alloca i32, align 4
  %16 = alloca i32, align 4
  %17 = alloca ptr, align 8
  %18 = alloca i32, align 4
  %19 = alloca i32, align 4
  store ptr %0, ptr %8, align 8, !tbaa !14
  store ptr %1, ptr %9, align 8, !tbaa !14
  store ptr %2, ptr %10, align 8, !tbaa !8
  store i64 %3, ptr %11, align 8, !tbaa !70
  store i64 %4, ptr %12, align 8, !tbaa !70
  store ptr %5, ptr %13, align 8, !tbaa !13
  call void @llvm.lifetime.start.p0(i64 4, ptr %14) #13
  store i32 0, ptr %14, align 4, !tbaa !4
  call void @llvm.lifetime.start.p0(i64 4, ptr %15) #13
  %20 = load i64, ptr %11, align 8, !tbaa !70
  %21 = trunc i64 %20 to i32
  %22 = sub nsw i32 %21, 1
  store i32 %22, ptr %15, align 4, !tbaa !4
  br label %23

23:                                               ; preds = %60, %6
  %24 = load i32, ptr %14, align 4, !tbaa !4
  %25 = load i32, ptr %15, align 4, !tbaa !4
  %26 = icmp sle i32 %24, %25
  br i1 %26, label %27, label %61

27:                                               ; preds = %23
  call void @llvm.lifetime.start.p0(i64 4, ptr %16) #13
  %28 = load i32, ptr %14, align 4, !tbaa !4
  %29 = load i32, ptr %15, align 4, !tbaa !4
  %30 = add i32 %28, %29
  %31 = udiv i32 %30, 2
  store i32 %31, ptr %16, align 4, !tbaa !4
  call void @llvm.lifetime.start.p0(i64 8, ptr %17) #13
  %32 = load ptr, ptr %10, align 8, !tbaa !8
  %33 = load i32, ptr %16, align 4, !tbaa !4
  %34 = sext i32 %33 to i64
  %35 = load i64, ptr %12, align 8, !tbaa !70
  %36 = mul i64 %34, %35
  %37 = getelementptr inbounds nuw i8, ptr %32, i64 %36
  store ptr %37, ptr %17, align 8, !tbaa !8
  call void @llvm.lifetime.start.p0(i64 4, ptr %18) #13
  %38 = load ptr, ptr %13, align 8, !tbaa !13
  %39 = load ptr, ptr %9, align 8, !tbaa !14
  %40 = load ptr, ptr %17, align 8, !tbaa !8
  %41 = call noundef i32 %38(ptr noundef %39, ptr noundef %40)
  store i32 %41, ptr %18, align 4, !tbaa !4
  %42 = load i32, ptr %18, align 4, !tbaa !4
  %43 = icmp slt i32 %42, 0
  br i1 %43, label %44, label %47

44:                                               ; preds = %27
  %45 = load i32, ptr %16, align 4, !tbaa !4
  %46 = sub nsw i32 %45, 1
  store i32 %46, ptr %15, align 4, !tbaa !4
  br label %57

47:                                               ; preds = %27
  %48 = load i32, ptr %18, align 4, !tbaa !4
  %49 = icmp sgt i32 %48, 0
  br i1 %49, label %50, label %53

50:                                               ; preds = %47
  %51 = load i32, ptr %16, align 4, !tbaa !4
  %52 = add nsw i32 %51, 1
  store i32 %52, ptr %14, align 4, !tbaa !4
  br label %56

53:                                               ; preds = %47
  %54 = load i32, ptr %16, align 4, !tbaa !4
  %55 = load ptr, ptr %8, align 8, !tbaa !14
  store i32 %54, ptr %55, align 4, !tbaa !4
  store i1 true, ptr %7, align 1
  store i32 1, ptr %19, align 4
  br label %58

56:                                               ; preds = %50
  br label %57

57:                                               ; preds = %56, %44
  store i32 0, ptr %19, align 4
  br label %58

58:                                               ; preds = %57, %53
  call void @llvm.lifetime.end.p0(i64 4, ptr %18) #13
  call void @llvm.lifetime.end.p0(i64 8, ptr %17) #13
  call void @llvm.lifetime.end.p0(i64 4, ptr %16) #13
  %59 = load i32, ptr %19, align 4
  switch i32 %59, label %64 [
    i32 0, label %60
  ]

60:                                               ; preds = %58
  br label %23, !llvm.loop !71

61:                                               ; preds = %23
  %62 = load i32, ptr %14, align 4, !tbaa !4
  %63 = load ptr, ptr %8, align 8, !tbaa !14
  store i32 %62, ptr %63, align 4, !tbaa !4
  store i1 false, ptr %7, align 1
  store i32 1, ptr %19, align 4
  br label %64

64:                                               ; preds = %61, %58
  call void @llvm.lifetime.end.p0(i64 4, ptr %15) #13
  call void @llvm.lifetime.end.p0(i64 4, ptr %14) #13
  %65 = load i1, ptr %7, align 1
  ret i1 %65
}

; Function Attrs: inlinehint mustprogress nounwind uwtable
define internal noundef ptr @_ZL10hb_bsearchIK20hb_ot_language_map_tjEPT_RKT0_S3_mmPFiPKvS8_E(ptr noundef nonnull align 4 dereferenceable(4) %0, ptr noundef %1, i64 noundef %2, i64 noundef %3, ptr noundef %4) #1 {
  %6 = alloca ptr, align 8
  %7 = alloca ptr, align 8
  %8 = alloca i64, align 8
  %9 = alloca i64, align 8
  %10 = alloca ptr, align 8
  %11 = alloca i32, align 4
  store ptr %0, ptr %6, align 8, !tbaa !14
  store ptr %1, ptr %7, align 8, !tbaa !8
  store i64 %2, ptr %8, align 8, !tbaa !70
  store i64 %3, ptr %9, align 8, !tbaa !70
  store ptr %4, ptr %10, align 8, !tbaa !13
  call void @llvm.lifetime.start.p0(i64 4, ptr %11) #13
  %12 = load ptr, ptr %6, align 8, !tbaa !14
  %13 = load ptr, ptr %7, align 8, !tbaa !8
  %14 = load i64, ptr %8, align 8, !tbaa !70
  %15 = load i64, ptr %9, align 8, !tbaa !70
  %16 = load ptr, ptr %10, align 8, !tbaa !13
  %17 = call noundef zeroext i1 @_ZL15hb_bsearch_implIK20hb_ot_language_map_tjJEEbPjRKT0_PT_mmPFiPKvS9_DpT1_ESB_(ptr noundef %11, ptr noundef nonnull align 4 dereferenceable(4) %12, ptr noundef %13, i64 noundef %14, i64 noundef %15, ptr noundef %16)
  br i1 %17, label %18, label %25

18:                                               ; preds = %5
  %19 = load ptr, ptr %7, align 8, !tbaa !8
  %20 = load i32, ptr %11, align 4, !tbaa !4
  %21 = zext i32 %20 to i64
  %22 = load i64, ptr %9, align 8, !tbaa !70
  %23 = mul i64 %21, %22
  %24 = getelementptr inbounds nuw i8, ptr %19, i64 %23
  br label %26

25:                                               ; preds = %5
  br label %26

26:                                               ; preds = %25, %18
  %27 = phi ptr [ %24, %18 ], [ null, %25 ]
  call void @llvm.lifetime.end.p0(i64 4, ptr %11) #13
  ret ptr %27
}

; Function Attrs: mustprogress nounwind uwtable
define internal noundef ptr @_ZL24_hb_ot_name_language_forjPK20hb_ot_language_map_tj(i32 noundef %0, ptr noundef %1, i32 noundef %2) #0 {
  %4 = alloca ptr, align 8
  %5 = alloca i32, align 4
  %6 = alloca ptr, align 8
  %7 = alloca i32, align 4
  %8 = alloca ptr, align 8
  %9 = alloca i32, align 4
  store i32 %0, ptr %5, align 4, !tbaa !4
  store ptr %1, ptr %6, align 8, !tbaa !8
  store i32 %2, ptr %7, align 4, !tbaa !4
  call void @llvm.lifetime.start.p0(i64 8, ptr %8) #13
  %10 = load ptr, ptr %6, align 8, !tbaa !8
  %11 = load i32, ptr %7, align 4, !tbaa !4
  %12 = zext i32 %11 to i64
  %13 = call noundef ptr @_ZL10hb_bsearchIK20hb_ot_language_map_tjEPT_RKT0_S3_mmPFiPKvS8_E(ptr noundef nonnull align 4 dereferenceable(4) %5, ptr noundef %10, i64 noundef %12, i64 noundef 8, ptr noundef @_ZL14_hb_cmp_methodIjK20hb_ot_language_map_tJEEiPKvS3_DpT1_)
  store ptr %13, ptr %8, align 8, !tbaa !8
  %14 = load ptr, ptr %8, align 8, !tbaa !8
  %15 = icmp ne ptr %14, null
  br i1 %15, label %16, label %21

16:                                               ; preds = %3
  %17 = load ptr, ptr %8, align 8, !tbaa !8
  %18 = getelementptr inbounds nuw %struct.hb_ot_language_map_t, ptr %17, i32 0, i32 1
  %19 = getelementptr inbounds [6 x i8], ptr %18, i64 0, i64 0
  %20 = call ptr @hb_language_from_string(ptr noundef %19, i32 noundef -1)
  store ptr %20, ptr %4, align 8
  store i32 1, ptr %9, align 4
  br label %22

21:                                               ; preds = %3
  store ptr null, ptr %4, align 8
  store i32 1, ptr %9, align 4
  br label %22

22:                                               ; preds = %21, %16
  call void @llvm.lifetime.end.p0(i64 8, ptr %8) #13
  %23 = load ptr, ptr %4, align 8
  ret ptr %23
}

; Function Attrs: inlinehint mustprogress nounwind uwtable
define internal noundef i32 @_ZL12ARRAY_LENGTHI20hb_ot_language_map_tLj117EEjRAT0__KT_(ptr noundef nonnull align 2 dereferenceable(936) %0) #1 {
  %2 = alloca ptr, align 8
  store ptr %0, ptr %2, align 8, !tbaa !8
  ret i32 117
}

; Function Attrs: mustprogress nounwind uwtable
define hidden noundef ptr @_Z33_hb_ot_name_language_for_mac_codej(i32 noundef %0) #0 {
  %2 = alloca i32, align 4
  store i32 %0, ptr %2, align 4, !tbaa !4
  %3 = load i32, ptr %2, align 4, !tbaa !4
  %4 = call noundef i32 @_ZL12ARRAY_LENGTHI20hb_ot_language_map_tLj117EEjRAT0__KT_(ptr noundef nonnull align 2 dereferenceable(936) @_ZL20_hb_mac_language_map)
  %5 = call noundef ptr @_ZL24_hb_ot_name_language_forjPK20hb_ot_language_map_tj(i32 noundef %3, ptr noundef @_ZL20_hb_mac_language_map, i32 noundef %4)
  ret ptr %5
}